target datalayout = "e-m:e-p270:32:32-p271:32:32-p272:64:64-i64:64-i128:128-f80:128-n8:16:32:64-S128"
target triple = "x86_64-pc-linux-gnu"

%"class.std::_Function_base" = type { %"union.std::_Any_data", ptr }
%"union.std::_Any_data" = type { %"union.std::_Nocopy_types" }
%"union.std::_Nocopy_types" = type { { i64, i64 } }
%"class.std::basic_string_view" = type { i64, ptr }
%"class.cm::static_string_view" = type { %"class.std::basic_string_view" }
%"class.std::function.244" = type { %"class.std::_Function_base", ptr }
%class.anon.893 = type { i64 }

; Function Attrs: mustprogress nounwind uwtable
define linkonce_odr dso_local noundef ptr @_ZNSt9_Any_data9_M_accessEv(ptr noundef nonnull align 8 dereferenceable(16) %0) #6 comdat align 2 {
  %2 = alloca ptr, align 8
  store ptr %0, ptr %2, align 8, !tbaa !481
  %3 = load ptr, ptr %2, align 8
  %4 = getelementptr inbounds [16 x i8], ptr %3, i64 0, i64 0
  ret ptr %4
}

; Function Attrs: mustprogress nounwind uwtable
define internal void @_ZNSt14_Function_base13_Base_managerIZN16cmArgumentParserIZN12_GLOBAL__N_135HandleGetRuntimeDependenciesCommandERKSt6vectorINSt7__cxx1112basic_stringIcSt11char_traitsIcESaIcEEESaIS9_EER17cmExecutionStatusE9ArgumentsE4BindIMSG_N14ArgumentParser10MaybeEmptyISB_EESG_SL_vvEERSH_N2cm18static_string_viewET_EUlRNSJ_8InstanceEE_E9_M_createIST_EEvRSt9_Any_dataOSQ_St17integral_constantIbLb1EE(ptr noundef nonnull align 8 dereferenceable(16) %0, ptr noundef nonnull align 8 dereferenceable(8) %1) #6 align 2 {
  %3 = alloca ptr, align 8
  %4 = alloca ptr, align 8
  store ptr %0, ptr %3, align 8, !tbaa !481
  store ptr %1, ptr %4, align 8, !tbaa !16
  %5 = load ptr, ptr %3, align 8, !tbaa !481
  %6 = call noundef ptr @_ZNSt9_Any_data9_M_accessEv(ptr noundef nonnull align 8 dereferenceable(16) %5) #3
  %7 = load ptr, ptr %4, align 8, !tbaa !16
  call void @llvm.memcpy.p0.p0.i64(ptr align 8 %6, ptr align 8 %7, i64 8, i1 false), !tbaa.struct !489
  ret void
}

; Function Attrs: mustprogress nounwind uwtable
define internal void @_ZNSt14_Function_base13_Base_managerIZN16cmArgumentParserIZN12_GLOBAL__N_135HandleGetRuntimeDependenciesCommandERKSt6vectorINSt7__cxx1112basic_stringIcSt11char_traitsIcESaIcEEESaIS9_EER17cmExecutionStatusE9ArgumentsE4BindIMSG_N14ArgumentParser10MaybeEmptyISB_EESG_SL_vvEERSH_N2cm18static_string_viewET_EUlRNSJ_8InstanceEE_E15_M_init_functorIST_EEvRSt9_Any_dataOSQ_(ptr noundef nonnull align 8 dereferenceable(16) %0, ptr noundef nonnull align 8 dereferenceable(8) %1) #6 align 2 personality ptr @__gxx_personality_v0 {
  %3 = alloca ptr, align 8
  %4 = alloca ptr, align 8
  store ptr %0, ptr %3, align 8, !tbaa !481
  store ptr %1, ptr %4, align 8, !tbaa !16
  %5 = load ptr, ptr %3, align 8, !tbaa !481
  %6 = load ptr, ptr %4, align 8, !tbaa !16
  invoke void @_ZNSt14_Function_base13_Base_managerIZN16cmArgumentParserIZN12_GLOBAL__N_135HandleGetRuntimeDependenciesCommandERKSt6vectorINSt7__cxx1112basic_stringIcSt11char_traitsIcESaIcEEESaIS9_EER17cmExecutionStatusE9ArgumentsE4BindIMSG_N14ArgumentParser10MaybeEmptyISB_EESG_SL_vvEERSH_N2cm18static_string_viewET_EUlRNSJ_8InstanceEE_E9_M_createIST_EEvRSt9_Any_dataOSQ_St17integral_constantIbLb1EE(ptr noundef nonnull align 8 dereferenceable(16) %5, ptr noundef nonnull align 8 dereferenceable(8) %6)
          to label %7 unwind label %8

7:                                                ; preds = %2
  ret void

8:                                                ; preds = %2
  %9 = landingpad { ptr, i32 }
          catch ptr null
  %10 = extractvalue { ptr, i32 } %9, 0
  call void @__clang_call_terminate(ptr %10) #25
  unreachable
}

; Function Attrs: mustprogress nounwind uwtable
define internal noundef zeroext i1 @_ZNSt14_Function_base13_Base_managerIZN16cmArgumentParserIZN12_GLOBAL__N_135HandleGetRuntimeDependenciesCommandERKSt6vectorINSt7__cxx1112basic_stringIcSt11char_traitsIcESaIcEEESaIS9_EER17cmExecutionStatusE9ArgumentsE4BindIMSG_N14ArgumentParser10MaybeEmptyISB_EESG_SL_vvEERSH_N2cm18static_string_viewET_EUlRNSJ_8InstanceEE_E21_M_not_empty_functionIST_EEbRKSQ_(ptr noundef nonnull align 8 dereferenceable(8) %0) #6 align 2 {
  %2 = alloca ptr, align 8
  store ptr %0, ptr %2, align 8, !tbaa !16
  ret i1 true
}

; Function Attrs: mustprogress nounwind uwtable
define linkonce_odr dso_local void @_ZNSt14_Function_baseC2Ev(ptr noundef nonnull align 8 dereferenceable(24) %0) unnamed_addr #6 comdat align 2 {
  %2 = alloca ptr, align 8
  store ptr %0, ptr %2, align 8, !tbaa !453
  %3 = load ptr, ptr %2, align 8
  %4 = getelementptr inbounds nuw %"class.std::_Function_base", ptr %3, i32 0, i32 0
  store ptr null, ptr %4, align 8, !tbaa !51
  %5 = getelementptr inbounds nuw %"class.std::_Function_base", ptr %3, i32 0, i32 1
  store ptr null, ptr %5, align 8, !tbaa !455
  ret void
}

; Function Attrs: mustprogress nounwind uwtable
define linkonce_odr dso_local void @_ZNSt14_Function_baseD2Ev(ptr noundef nonnull align 8 dereferenceable(24) %0) unnamed_addr #6 comdat align 2 personality ptr @__gxx_personality_v0 {
  %2 = alloca ptr, align 8
  store ptr %0, ptr %2, align 8, !tbaa !453
  %3 = load ptr, ptr %2, align 8
  %4 = getelementptr inbounds nuw %"class.std::_Function_base", ptr %3, i32 0, i32 1
  %5 = load ptr, ptr %4, align 8, !tbaa !455
  %6 = icmp ne ptr %5, null
  br i1 %6, label %7, label %14

7:                                                ; preds = %1
  %8 = getelementptr inbounds nuw %"class.std::_Function_base", ptr %3, i32 0, i32 1
  %9 = load ptr, ptr %8, align 8, !tbaa !455
  %10 = getelementptr inbounds nuw %"class.std::_Function_base", ptr %3, i32 0, i32 0
  %11 = getelementptr inbounds nuw %"class.std::_Function_base", ptr %3, i32 0, i32 0
  %12 = invoke noundef zeroext i1 %9(ptr noundef nonnull align 8 dereferenceable(16) %10, ptr noundef nonnull align 8 dereferenceable(16) %11, i32 noundef 3)
          to label %13 unwind label %15

13:                                               ; preds = %7
  br label %14

14:                                               ; preds = %13, %1
  ret void

15:                                               ; preds = %7
  %16 = landingpad { ptr, i32 }
          catch ptr null
  %17 = extractvalue { ptr, i32 } %16, 0
  call void @__clang_call_terminate(ptr %17) #25
  unreachable
}

; Function Attrs: mustprogress nounwind uwtable
define internal void @_ZNSt8functionIFvRN14ArgumentParser8InstanceEEEC2IZN16cmArgumentParserIZN12_GLOBAL__N_135HandleGetRuntimeDependenciesCommandERKSt6vectorINSt7__cxx1112basic_stringIcSt11char_traitsIcESaIcEEESaISE_EER17cmExecutionStatusE9ArgumentsE4BindIMSL_NS0_10MaybeEmptyISG_EESL_SP_vvEERSM_N2cm18static_string_viewET_EUlS2_E_vEEOSU_(ptr noundef nonnull align 8 dereferenceable(32) %0, ptr noundef nonnull align 8 dereferenceable(8) %1) unnamed_addr #6 align 2 {
  %3 = alloca ptr, align 8
  %4 = alloca ptr, align 8
  store ptr %0, ptr %3, align 8, !tbaa !473
  store ptr %1, ptr %4, align 8, !tbaa !16
  %5 = load ptr, ptr %3, align 8
  %6 = getelementptr inbounds i8, ptr %5, i64 0
  call void @llvm.memset.p0.i64(ptr align 8 %6, i8 0, i64 24, i1 false)
  call void @_ZNSt14_Function_baseC2Ev(ptr noundef nonnull align 8 dereferenceable(24) %5) #3
  %7 = getelementptr inbounds nuw %"class.std::function.244", ptr %5, i32 0, i32 1
  store ptr null, ptr %7, align 8, !tbaa !475
  %8 = load ptr, ptr %4, align 8, !tbaa !16
  %9 = call noundef zeroext i1 @_ZNSt14_Function_base13_Base_managerIZN16cmArgumentParserIZN12_GLOBAL__N_135HandleGetRuntimeDependenciesCommandERKSt6vectorINSt7__cxx1112basic_stringIcSt11char_traitsIcESaIcEEESaIS9_EER17cmExecutionStatusE9ArgumentsE4BindIMSG_N14ArgumentParser10MaybeEmptyISB_EESG_SL_vvEERSH_N2cm18static_string_viewET_EUlRNSJ_8InstanceEE_E21_M_not_empty_functionIST_EEbRKSQ_(ptr noundef nonnull align 8 dereferenceable(8) %8) #3
  br i1 %9, label %10, label %15

10:                                               ; preds = %2
  %11 = getelementptr inbounds nuw %"class.std::_Function_base", ptr %5, i32 0, i32 0
  %12 = load ptr, ptr %4, align 8, !tbaa !16
  call void @_ZNSt14_Function_base13_Base_managerIZN16cmArgumentParserIZN12_GLOBAL__N_135HandleGetRuntimeDependenciesCommandERKSt6vectorINSt7__cxx1112basic_stringIcSt11char_traitsIcESaIcEEESaIS9_EER17cmExecutionStatusE9ArgumentsE4BindIMSG_N14ArgumentParser10MaybeEmptyISB_EESG_SL_vvEERSH_N2cm18static_string_viewET_EUlRNSJ_8InstanceEE_E15_M_init_functorIST_EEvRSt9_Any_dataOSQ_(ptr noundef nonnull align 8 dereferenceable(16) %11, ptr noundef nonnull align 8 dereferenceable(8) %12) #3
  %13 = getelementptr inbounds nuw %"class.std::function.244", ptr %5, i32 0, i32 1
  store ptr @_ZNSt17_Function_handlerIFvRN14ArgumentParser8InstanceEEZN16cmArgumentParserIZN12_GLOBAL__N_135HandleGetRuntimeDependenciesCommandERKSt6vectorINSt7__cxx1112basic_stringIcSt11char_traitsIcESaIcEEESaISC_EER17cmExecutionStatusE9ArgumentsE4BindIMSJ_NS0_10MaybeEmptyISE_EESJ_SN_vvEERSK_N2cm18static_string_viewET_EUlS2_E_E9_M_invokeERKSt9_Any_dataS2_, ptr %13, align 8, !tbaa !475
  %14 = getelementptr inbounds nuw %"class.std::_Function_base", ptr %5, i32 0, i32 1
  store ptr @_ZNSt17_Function_handlerIFvRN14ArgumentParser8InstanceEEZN16cmArgumentParserIZN12_GLOBAL__N_135HandleGetRuntimeDependenciesCommandERKSt6vectorINSt7__cxx1112basic_stringIcSt11char_traitsIcESaIcEEESaISC_EER17cmExecutionStatusE9ArgumentsE4BindIMSJ_NS0_10MaybeEmptyISE_EESJ_SN_vvEERSK_N2cm18static_string_viewET_EUlS2_E_E10_M_managerERSt9_Any_dataRKSV_St18_Manager_operation, ptr %14, align 8, !tbaa !455
  br label %15

15:                                               ; preds = %10, %2
  ret void
}

; Function Attrs: mustprogress uwtable
define internal noundef nonnull align 8 dereferenceable(112) ptr @_ZN16cmArgumentParserIZN12_GLOBAL__N_135HandleGetRuntimeDependenciesCommandERKSt6vectorINSt7__cxx1112basic_stringIcSt11char_traitsIcESaIcEEESaIS7_EER17cmExecutionStatusE9ArgumentsE4BindIMSE_N14ArgumentParser10MaybeEmptyIS9_EESE_SJ_vvEERSF_N2cm18static_string_viewET_(ptr noundef nonnull align 8 dereferenceable(112) %0, i64 %1, ptr %2, i64 %3) #5 align 2 personality ptr @__gxx_personality_v0 {
  %5 = alloca %"class.cm::static_string_view", align 8
  %6 = alloca ptr, align 8
  %7 = alloca i64, align 8
  %8 = alloca %"class.std::basic_string_view", align 8
  %9 = alloca %"class.std::function.244", align 8
  %10 = alloca %class.anon.893, align 8
  %11 = alloca ptr, align 8
  %12 = alloca i32, align 4
  %13 = getelementptr inbounds nuw { i64, ptr }, ptr %5, i32 0, i32 0
  store i64 %1, ptr %13, align 8
  %14 = getelementptr inbounds nuw { i64, ptr }, ptr %5, i32 0, i32 1
  store ptr %2, ptr %14, align 8
  store ptr %0, ptr %6, align 8, !tbaa !1010
  store i64 %3, ptr %7, align 8, !tbaa !51
  %15 = load ptr, ptr %6, align 8
  call void @llvm.memcpy.p0.p0.i64(ptr align 8 %8, ptr align 8 %5, i64 16, i1 false), !tbaa.struct !121
  call void @llvm.lifetime.start.p0(i64 8, ptr %10) #3
  %16 = getelementptr inbounds nuw %class.anon.893, ptr %10, i32 0, i32 0
  %17 = load i64, ptr %7, align 8, !tbaa !51
  store i64 %17, ptr %16, align 8, !tbaa !1014
  call void @_ZNSt8functionIFvRN14ArgumentParser8InstanceEEEC2IZN16cmArgumentParserIZN12_GLOBAL__N_135HandleGetRuntimeDependenciesCommandERKSt6vectorINSt7__cxx1112basic_stringIcSt11char_traitsIcESaIcEEESaISE_EER17cmExecutionStatusE9ArgumentsE4BindIMSL_NS0_10MaybeEmptyISG_EESL_SP_vvEERSM_N2cm18static_string_viewET_EUlS2_E_vEEOSU_(ptr noundef nonnull align 8 dereferenceable(32) %9, ptr noundef nonnull align 8 dereferenceable(8) %10) #3
  %18 = getelementptr inbounds nuw { i64, ptr }, ptr %8, i32 0, i32 0
  %19 = load i64, ptr %18, align 8
  %20 = getelementptr inbounds nuw { i64, ptr }, ptr %8, i32 0, i32 1
  %21 = load ptr, ptr %20, align 8
  invoke void @_ZN14ArgumentParser4Base4BindESt17basic_string_viewIcSt11char_traitsIcEESt8functionIFvRNS_8InstanceEEE(ptr noundef nonnull align 8 dereferenceable(112) %15, i64 %19, ptr %21, ptr noundef %9)
          to label %22 unwind label %23

22:                                               ; preds = %4
  call void @_ZNSt14_Function_baseD2Ev(ptr noundef nonnull align 8 dereferenceable(32) %9) #3
  call void @llvm.lifetime.end.p0(i64 8, ptr %10) #3
  ret ptr %15

23:                                               ; preds = %4
  %24 = landingpad { ptr, i32 }
          cleanup
  %25 = extractvalue { ptr, i32 } %24, 0
  store ptr %25, ptr %11, align 8
  %26 = extractvalue { ptr, i32 } %24, 1
  store i32 %26, ptr %12, align 4
  call void @_ZNSt14_Function_baseD2Ev(ptr noundef nonnull align 8 dereferenceable(32) %9) #3
  call void @llvm.lifetime.end.p0(i64 8, ptr %10) #3
  br label %27

27:                                               ; preds = %23
  %28 = load ptr, ptr %11, align 8
  %29 = load i32, ptr %12, align 4
  %30 = insertvalue { ptr, i32 } poison, ptr %28, 0
  %31 = insertvalue { ptr, i32 } %30, i32 %29, 1
  resume { ptr, i32 } %31
}